target datalayout = "e-m:e-p270:32:32-p271:32:32-p272:64:64-i64:64-i128:128-f80:128-n8:16:32:64-S128"
target triple = "x86_64-pc-linux-gnu"

%class.QByteArray = type { %struct.QArrayDataPointer.0 }
%struct.QArrayDataPointer.0 = type { ptr, ptr, i64 }
%struct._GByteArray = type { ptr, i32 }

; Function Attrs: mustprogress null_pointer_is_valid sspstrong uwtable
define void @_Z29gbytearray_free_to_qbytearrayP11_GByteArray(ptr dead_on_unwind noalias writable sret(%class.QByteArray) align 8 %0, ptr noundef %1) #0 personality ptr @__gxx_personality_v0 {
  %3 = alloca ptr, align 8
  %4 = alloca ptr, align 8
  %5 = alloca i1, align 1
  %6 = alloca ptr, align 8
  %7 = alloca i32, align 4
  store ptr %0, ptr %3, align 8
  store ptr %1, ptr %4, align 8
  store i1 false, ptr %5, align 1
  %8 = load ptr, ptr %4, align 8
  %9 = getelementptr inbounds nuw %struct._GByteArray, ptr %8, i32 0, i32 0
  %10 = load ptr, ptr %9, align 8
  %11 = load ptr, ptr %4, align 8
  %12 = getelementptr inbounds nuw %struct._GByteArray, ptr %11, i32 0, i32 1
  %13 = load i32, ptr %12, align 8
  %14 = zext i32 %13 to i64
  call void @_ZN10QByteArrayC1EPKcx(ptr noundef align 8 dereferenceable_or_null(24) %0, ptr noundef %10, i64 noundef %14)
  %15 = load ptr, ptr %4, align 8
  %16 = invoke ptr @g_byte_array_free(ptr noundef %15, i32 noundef 1)
          to label %17 unwind label %19

17:                                               ; preds = %2
  store i1 true, ptr %5, align 1
  %18 = load i1, ptr %5, align 1
  br i1 %18, label %24, label %23

19:                                               ; preds = %2
  %20 = landingpad { ptr, i32 }
          cleanup
  %21 = extractvalue { ptr, i32 } %20, 0
  store ptr %21, ptr %6, align 8
  %22 = extractvalue { ptr, i32 } %20, 1
  store i32 %22, ptr %7, align 4
  call void @_ZN10QByteArrayD2Ev(ptr noundef align 8 dereferenceable_or_null(24) %0) #22
  br label %25

23:                                               ; preds = %17
  call void @_ZN10QByteArrayD2Ev(ptr noundef align 8 dereferenceable_or_null(24) %0) #22
  br label %24

24:                                               ; preds = %23, %17
  ret void

25:                                               ; preds = %19
  %26 = load ptr, ptr %6, align 8
  %27 = load i32, ptr %7, align 4
  %28 = insertvalue { ptr, i32 } poison, ptr %26, 0
  %29 = insertvalue { ptr, i32 } %28, i32 %27, 1
  resume { ptr, i32 } %29
}