; Function Attrs: mustprogress null_pointer_is_valid sspstrong uwtable
define void @_Z29gbytearray_free_to_qbytearrayP11_GByteArray(ptr dead_on_unwind noalias writable sret(%class.QByteArray) align 8 %0, ptr noundef %1) local_unnamed_addr #0 personality ptr @__gxx_personality_v0 {
  %3 = load ptr, ptr %1, align 8
  %4 = getelementptr inbounds nuw i8, ptr %1, i64 8
  %5 = load i32, ptr %4, align 8
  %6 = zext i32 %5 to i64
  tail call void @_ZN10QByteArrayC1EPKcx(ptr noundef align 8 dereferenceable_or_null(24) %0, ptr noundef %3, i64 noundef %6)
  %7 = invoke ptr @g_byte_array_free(ptr noundef %1, i32 noundef 1)
          to label %10 unwind label %8

8:                                                ; preds = %2
  %9 = landingpad { ptr, i32 }
          cleanup
  tail call void @_ZN10QByteArrayD2Ev(ptr noundef align 8 dereferenceable_or_null(24) %0) #21
  resume { ptr, i32 } %9

10:                                               ; preds = %2
  ret void
}